(dp0
I512
(lp1
I2
aI2
aI2
aI2
aI2
aI2
aI2
aI2
aI2
asI1
(lp2
sI2
(lp3
I2
asI3
(lp4
I3
asI4
(lp5
I2
aI2
asI5
(lp6
I5
asI6
(lp7
I2
aI3
asI8
(lp8
I2
aI2
aI2
asI9
(lp9
I3
aI3
asI10
(lp10
I2
aI5
asI12
(lp11
I2
aI2
aI3
asI15
(lp12
I3
aI5
asI16
(lp13
I2
aI2
aI2
aI2
asI18
(lp14
I2
aI3
aI3
asI20
(lp15
I2
aI2
aI5
asI2592
(lp16
I2
aI2
aI2
aI2
aI2
aI3
aI3
aI3
aI3
asI24
(lp17
I2
aI2
aI2
aI3
asI25
(lp18
I5
aI5
asI27
(lp19
I3
aI3
aI3
asI540
(lp20
I2
aI2
aI3
aI3
aI3
aI5
asI768
(lp21
I2
aI2
aI2
aI2
aI2
aI2
aI2
aI2
aI3
asI32
(lp22
I2
aI2
aI2
aI2
aI2
asI36
(lp23
I2
aI2
aI3
aI3
asI1024
(lp24
I2
aI2
aI2
aI2
aI2
aI2
aI2
aI2
aI2
aI2
asI40
(lp25
I2
aI2
aI2
aI5
asI45
(lp26
I3
aI3
aI5
asI1280
(lp27
I2
aI2
aI2
aI2
aI2
aI2
aI2
aI2
aI5
asI48
(lp28
I2
aI2
aI2
aI2
aI3
asI50
(lp29
I2
aI5
aI5
asI3125
(lp30
I5
aI5
aI5
aI5
aI5
asI54
(lp31
I2
aI3
aI3
aI3
asI1080
(lp32
I2
aI2
aI2
aI3
aI3
aI3
aI5
asI60
(lp33
I2
aI2
aI3
aI5
asI64
(lp34
I2
aI2
aI2
aI2
aI2
aI2
asI2400
(lp35
I2
aI2
aI2
aI2
aI2
aI3
aI5
aI5
asI2048
(lp36
I2
aI2
aI2
aI2
aI2
aI2
aI2
aI2
aI2
aI2
aI2
asI72
(lp37
I2
aI2
aI2
aI3
aI3
asI75
(lp38
I3
aI5
aI5
asI2304
(lp39
I2
aI2
aI2
aI2
aI2
aI2
aI2
aI2
aI3
aI3
asI80
(lp40
I2
aI2
aI2
aI2
aI5
asI81
(lp41
I3
aI3
aI3
aI3
asI1620
(lp42
I2
aI2
aI3
aI3
aI3
aI3
aI5
asI2560
(lp43
I2
aI2
aI2
aI2
aI2
aI2
aI2
aI2
aI2
aI5
asI600
(lp44
I2
aI2
aI2
aI3
aI5
aI5
asI90
(lp45
I2
aI3
aI3
aI5
asI96
(lp46
I2
aI2
aI2
aI2
aI2
aI3
asI100
(lp47
I2
aI2
aI5
aI5
asI1125
(lp48
I3
aI3
aI5
aI5
aI5
asI3072
(lp49
I2
aI2
aI2
aI2
aI2
aI2
aI2
aI2
aI2
aI2
aI3
asI108
(lp50
I2
aI2
aI3
aI3
aI3
asI2160
(lp51
I2
aI2
aI2
aI2
aI3
aI3
aI3
aI5
asI625
(lp52
I5
aI5
aI5
aI5
asI120
(lp53
I2
aI2
aI2
aI3
aI5
asI125
(lp54
I5
aI5
aI5
asI128
(lp55
I2
aI2
aI2
aI2
aI2
aI2
aI2
asI1728
(lp56
I2
aI2
aI2
aI2
aI2
aI2
aI3
aI3
aI3
asI135
(lp57
I3
aI3
aI3
aI5
asI648
(lp58
I2
aI2
aI2
aI3
aI3
aI3
aI3
asI2187
(lp59
I3
aI3
aI3
aI3
aI3
aI3
aI3
asI2700
(lp60
I2
aI2
aI3
aI3
aI3
aI5
aI5
asI144
(lp61
I2
aI2
aI2
aI2
aI3
aI3
asI150
(lp62
I2
aI3
aI5
aI5
asI160
(lp63
I2
aI2
aI2
aI2
aI2
aI5
asI162
(lp64
I2
aI3
aI3
aI3
aI3
asI675
(lp65
I3
aI3
aI3
aI5
aI5
asI3240
(lp66
I2
aI2
aI2
aI3
aI3
aI3
aI3
aI5
asI1200
(lp67
I2
aI2
aI2
aI2
aI3
aI5
aI5
asI180
(lp68
I2
aI2
aI3
aI3
aI5
asI30
(lp69
I2
aI3
aI5
asI1215
(lp70
I3
aI3
aI3
aI3
aI3
aI5
asI192
(lp71
I2
aI2
aI2
aI2
aI2
aI2
aI3
asI800
(lp72
I2
aI2
aI2
aI2
aI2
aI5
aI5
asI200
(lp73
I2
aI2
aI2
aI5
aI5
asI2250
(lp74
I2
aI3
aI3
aI5
aI5
aI5
asI720
(lp75
I2
aI2
aI2
aI2
aI3
aI3
aI5
asI216
(lp76
I2
aI2
aI2
aI3
aI3
aI3
asI729
(lp77
I3
aI3
aI3
aI3
aI3
aI3
asI225
(lp78
I3
aI3
aI5
aI5
asI1250
(lp79
I2
aI5
aI5
aI5
aI5
asI750
(lp80
I2
aI3
aI5
aI5
aI5
asI240
(lp81
I2
aI2
aI2
aI2
aI3
aI5
asI243
(lp82
I3
aI3
aI3
aI3
aI3
asI250
(lp83
I2
aI5
aI5
aI5
asI256
(lp84
I2
aI2
aI2
aI2
aI2
aI2
aI2
aI2
asI640
(lp85
I2
aI2
aI2
aI2
aI2
aI2
aI2
aI5
asI1800
(lp86
I2
aI2
aI2
aI3
aI3
aI5
aI5
asI270
(lp87
I2
aI3
aI3
aI3
aI5
asI1296
(lp88
I2
aI2
aI2
aI2
aI3
aI3
aI3
aI3
asI288
(lp89
I2
aI2
aI2
aI2
aI2
aI3
aI3
asI810
(lp90
I2
aI3
aI3
aI3
aI3
aI5
asI300
(lp91
I2
aI2
aI3
aI5
aI5
asI3375
(lp92
I3
aI3
aI3
aI5
aI5
aI5
asI320
(lp93
I2
aI2
aI2
aI2
aI2
aI2
aI5
asI1920
(lp94
I2
aI2
aI2
aI2
aI2
aI2
aI2
aI3
aI5
asI324
(lp95
I2
aI2
aI3
aI3
aI3
aI3
asI1350
(lp96
I2
aI3
aI3
aI3
aI5
aI5
asI1536
(lp97
I2
aI2
aI2
aI2
aI2
aI2
aI2
aI2
aI2
aI3
asI1875
(lp98
I3
aI5
aI5
aI5
aI5
asI864
(lp99
I2
aI2
aI2
aI2
aI2
aI3
aI3
aI3
asI2880
(lp100
I2
aI2
aI2
aI2
aI2
aI2
aI3
aI3
aI5
asI2916
(lp101
I2
aI2
aI3
aI3
aI3
aI3
aI3
aI3
asI360
(lp102
I2
aI2
aI2
aI3
aI3
aI5
asI3200
(lp103
I2
aI2
aI2
aI2
aI2
aI2
aI2
aI5
aI5
asI3456
(lp104
I2
aI2
aI2
aI2
aI2
aI2
aI2
aI3
aI3
aI3
asI375
(lp105
I3
aI5
aI5
aI5
asI2430
(lp106
I2
aI3
aI3
aI3
aI3
aI3
aI5
asI384
(lp107
I2
aI2
aI2
aI2
aI2
aI2
aI2
aI3
asI576
(lp108
I2
aI2
aI2
aI2
aI2
aI2
aI3
aI3
asI900
(lp109
I2
aI2
aI3
aI3
aI5
aI5
asI400
(lp110
I2
aI2
aI2
aI2
aI5
aI5
asI405
(lp111
I3
aI3
aI3
aI3
aI5
asI1944
(lp112
I2
aI2
aI2
aI3
aI3
aI3
aI3
aI3
asI1440
(lp113
I2
aI2
aI2
aI2
aI2
aI3
aI3
aI5
asI432
(lp114
I2
aI2
aI2
aI2
aI3
aI3
aI3
asI1458
(lp115
I2
aI3
aI3
aI3
aI3
aI3
aI3
asI1600
(lp116
I2
aI2
aI2
aI2
aI2
aI2
aI5
aI5
asI960
(lp117
I2
aI2
aI2
aI2
aI2
aI2
aI3
aI5
asI450
(lp118
I2
aI3
aI3
aI5
aI5
asI2500
(lp119
I2
aI2
aI5
aI5
aI5
aI5
asI972
(lp120
I2
aI2
aI3
aI3
aI3
aI3
aI3
asI2000
(lp121
I2
aI2
aI2
aI2
aI5
aI5
aI5
asI1152
(lp122
I2
aI2
aI2
aI2
aI2
aI2
aI2
aI3
aI3
asI1500
(lp123
I2
aI2
aI3
aI5
aI5
aI5
asI480
(lp124
I2
aI2
aI2
aI2
aI2
aI3
aI5
asI486
(lp125
I2
aI3
aI3
aI3
aI3
aI3
asI1000
(lp126
I2
aI2
aI2
aI5
aI5
aI5
asI2025
(lp127
I3
aI3
aI3
aI3
aI5
aI5
asI3000
(lp128
I2
aI2
aI2
aI3
aI5
aI5
aI5
asI500
(lp129
I2
aI2
aI5
aI5
aI5
as.